; Function Attrs: nounwind uwtable
define internal fastcc noalias noundef ptr @tsrm_realpath_str(ptr noundef %0) unnamed_addr #0 {
  %2 = tail call ptr @tsrm_realpath(ptr noundef %0, ptr noundef null) #16
  %.not = icmp eq ptr %2, null
  br i1 %.not, label %13, label %3

3:                                                ; preds = %1
  %4 = tail call i64 @strlen(ptr noundef nonnull dereferenceable(1) %2) #17
  %5 = and i64 %4, -8
  %6 = add i64 %5, 32
  %7 = tail call noalias ptr @_emalloc(i64 noundef %6) #19
  store i32 1, ptr %7, align 4
  %8 = getelementptr inbounds i8, ptr %7, i64 4
  store i32 22, ptr %8, align 4
  %9 = getelementptr inbounds i8, ptr %7, i64 8
  store i64 0, ptr %9, align 8
  %10 = getelementptr inbounds i8, ptr %7, i64 16
  store i64 %4, ptr %10, align 8
  %11 = getelementptr inbounds i8, ptr %7, i64 24
  tail call void @llvm.memcpy.p0.p0.i64(ptr nonnull align 8 %11, ptr nonnull align 1 %2, i64 %4, i1 false)
  %12 = getelementptr inbounds [1 x i8], ptr %11, i64 0, i64 %4
  store i8 0, ptr %12, align 1
  tail call void @_efree(ptr noundef nonnull %2) #16
  br label %13

13:                                               ; preds = %1, %3
  %.0 = phi ptr [ %7, %3 ], [ null, %1 ]
  ret ptr %.0
}